; Function Attrs: mustprogress uwtable
define internal void @_ZN6icu_75L18deleteTZDBNameInfoEPv(ptr noundef %obj) #1 {
entry:
  %cmp.not = icmp eq ptr %obj, null
  br i1 %cmp.not, label %if.end, label %if.then

if.then:                                          ; preds = %entry
  tail call void @uprv_free_75(ptr noundef nonnull %obj)
  br label %if.end

if.end:                                           ; preds = %if.then, %entry
  ret void
}